; Function Attrs: nounwind uwtable
define void @Gia_ManPrintGetMuxFanins(ptr noundef readonly captures(none) %0, ptr noundef %1, ptr noundef writeonly captures(none) initializes((0, 12)) %2) local_unnamed_addr #4 {
  %4 = alloca ptr, align 8
  %5 = alloca ptr, align 8
  call void @llvm.lifetime.start.p0(i64 8, ptr nonnull %4) #27
  call void @llvm.lifetime.start.p0(i64 8, ptr nonnull %5) #27
  %6 = call ptr @Gia_ObjRecognizeMux(ptr noundef %1, ptr noundef nonnull %5, ptr noundef nonnull %4) #27
  %7 = ptrtoint ptr %6 to i64
  %8 = and i64 %7, -2
  %9 = getelementptr i8, ptr %0, i64 32
  %.val9 = load ptr, ptr %9, align 8, !tbaa !55
  %10 = ptrtoint ptr %.val9 to i64
  %11 = sub i64 %8, %10
  %12 = sdiv exact i64 %11, 12
  %13 = trunc i64 %12 to i32
  store i32 %13, ptr %2, align 4, !tbaa !48
  %14 = load ptr, ptr %5, align 8, !tbaa !62
  %15 = ptrtoint ptr %14 to i64
  %16 = and i64 %15, -2
  %17 = sub i64 %16, %10
  %18 = sdiv exact i64 %17, 12
  %19 = trunc i64 %18 to i32
  %20 = getelementptr inbounds nuw i8, ptr %2, i64 4
  store i32 %19, ptr %20, align 4, !tbaa !48
  %21 = load ptr, ptr %4, align 8, !tbaa !62
  %22 = ptrtoint ptr %21 to i64
  %23 = and i64 %22, -2
  %24 = sub i64 %23, %10
  %25 = sdiv exact i64 %24, 12
  %26 = trunc i64 %25 to i32
  %27 = getelementptr inbounds nuw i8, ptr %2, i64 8
  store i32 %26, ptr %27, align 4, !tbaa !48
  call void @llvm.lifetime.end.p0(i64 8, ptr nonnull %5) #27
  call void @llvm.lifetime.end.p0(i64 8, ptr nonnull %4) #27
  ret void
}